; Function Attrs: mustprogress uwtable
define noundef double @_ZN5osgeo4proj8internal13c_locale_stodERKNSt7__cxx1112basic_stringIcSt11char_traitsIcESaIcEEE(ptr noundef nonnull align 8 dereferenceable(32) %0) local_unnamed_addr #0 personality ptr @__gxx_personality_v0 {
  %2 = alloca i8, align 1
  call void @llvm.lifetime.start.p0(i64 1, ptr nonnull %2) #21
  %3 = call noundef double @_ZN5osgeo4proj8internal13c_locale_stodERKNSt7__cxx1112basic_stringIcSt11char_traitsIcESaIcEEERb(ptr noundef nonnull align 8 dereferenceable(32) %0, ptr noundef nonnull align 1 dereferenceable(1) %2)
  %4 = load i8, ptr %2, align 1, !tbaa !24, !range !26, !noundef !27
  %5 = trunc nuw i8 %4 to i1
  br i1 %5, label %11, label %6

6:                                                ; preds = %1
  %7 = tail call ptr @__cxa_allocate_exception(i64 16) #21
  invoke void @_ZNSt16invalid_argumentC1EPKc(ptr noundef nonnull align 8 dereferenceable(16) %7, ptr noundef nonnull @.str)
          to label %8 unwind label %9

8:                                                ; preds = %6
  tail call void @__cxa_throw(ptr nonnull %7, ptr nonnull @_ZTISt16invalid_argument, ptr nonnull @_ZNSt16invalid_argumentD1Ev) #22
  unreachable

9:                                                ; preds = %6
  %10 = landingpad { ptr, i32 }
          cleanup
  tail call void @__cxa_free_exception(ptr nonnull %7) #21
  call void @llvm.lifetime.end.p0(i64 1, ptr nonnull %2) #21
  resume { ptr, i32 } %10

11:                                               ; preds = %1
  call void @llvm.lifetime.end.p0(i64 1, ptr nonnull %2) #21
  ret double %3
}